; Function Attrs: mustprogress uwtable
define dso_local void @_ZN5vcpkg19find_unknown_fieldsB5cxx11ERKNS_13ConfigurationE(ptr dead_on_unwind noalias nonnull writable sret(%"class.std::vector") align 8 initializes((0, 24)) %0, ptr noundef nonnull readonly align 8 captures(none) dereferenceable(472) %1) local_unnamed_addr #0 personality ptr @__gxx_personality_v0 {
  tail call void @llvm.memset.p0.i64(ptr noundef nonnull align 8 dereferenceable(24) %0, i8 0, i64 24, i1 false)
  %3 = getelementptr inbounds nuw i8, ptr %1, i64 376
  invoke fastcc void @_ZN12_GLOBAL__N_124find_unknown_fields_implERKN5vcpkg4Json6ObjectERSt6vectorINSt7__cxx1112basic_stringIcSt11char_traitsIcESaIcEEESaISB_EENS0_10StringViewE(ptr noundef nonnull align 8 dereferenceable(24) %3, ptr noundef nonnull align 8 dereferenceable(24) %0, ptr nonnull @.str.15, i64 1)
          to label %6 unwind label %4

4:                                                ; preds = %2
  %5 = landingpad { ptr, i32 }
          cleanup
  tail call void @_ZNSt6vectorINSt7__cxx1112basic_stringIcSt11char_traitsIcESaIcEEESaIS5_EED2Ev(ptr noundef nonnull align 8 dereferenceable(24) %0) #22
  resume { ptr, i32 } %5

6:                                                ; preds = %2
  ret void
}